target datalayout = "e-m:e-p270:32:32-p271:32:32-p272:64:64-i64:64-i128:128-f80:128-n8:16:32:64-S128"
target triple = "x86_64-unknown-linux-gnu"

%class.btSliderConstraint = type { %class.btTypedConstraint, i8, i8, %class.btTransform, %class.btTransform, i8, float, float, float, float, float, float, float, float, float, float, float, float, float, float, float, float, float, float, float, float, float, float, float, float, float, float, float, float, i8, i8, i32, [3 x %class.btJacobianEntry], [3 x float], [3 x %class.btJacobianEntry], float, %class.btTransform, %class.btTransform, %class.btVector3, %class.btVector3, %class.btVector3, %class.btVector3, %class.btVector3, %class.btVector3, %class.btVector3, %class.btVector3, float, float, float, float, i8, float, float, float, i8, float, float, float }
%class.btTypedConstraint = type { ptr, %struct.btTypedObject, i32, %union.anon.0, float, i8, i8, i32, ptr, ptr, float, float, ptr }
%struct.btTypedObject = type { i32 }
%union.anon.0 = type { ptr }
%class.btJacobianEntry = type { %class.btVector3, %class.btVector3, %class.btVector3, %class.btVector3, %class.btVector3, float }
%class.btTransform = type { %class.btMatrix3x3, %class.btVector3 }
%class.btMatrix3x3 = type { [3 x %class.btVector3] }
%class.btVector3 = type { [4 x float] }
%class.btCollisionObject = type <{ ptr, %class.btTransform, %class.btTransform, %class.btVector3, %class.btVector3, %class.btVector3, i32, float, ptr, ptr, ptr, ptr, i32, i32, i32, i32, i32, float, float, float, float, float, float, float, i32, [4 x i8], ptr, i32, i32, i32, float, float, float, i32, [4 x i8], %class.btAlignedObjectArray, i32, %class.btVector3, [4 x i8] }>
%class.btAlignedObjectArray = type <{ %class.btAlignedAllocator, [3 x i8], i32, i32, [4 x i8], ptr, i8, [7 x i8] }>
%class.btAlignedAllocator = type { i8 }

; Function Attrs: mustprogress nounwind uwtable
define linkonce_odr dso_local noundef nonnull align 4 dereferenceable(64) ptr @_ZNK11btRigidBody24getCenterOfMassTransformEv(ptr noundef nonnull align 8 dereferenceable(744) %this) #1 comdat align 2 {
entry:
  %this.addr = alloca ptr, align 8
  store ptr %this, ptr %this.addr, align 8
  %this1 = load ptr, ptr %this.addr, align 8
  %m_worldTransform = getelementptr inbounds %class.btCollisionObject, ptr %this1, i32 0, i32 1
  ret ptr %m_worldTransform
}

; Function Attrs: mustprogress uwtable
define dso_local void @_ZN18btSliderConstraint10initParamsEv(ptr noundef nonnull align 8 dereferenceable(1152) %this) #2 align 2 {
entry:
  %this.addr = alloca ptr, align 8
  store ptr %this, ptr %this.addr, align 8
  %this1 = load ptr, ptr %this.addr, align 8
  %m_lowerLinLimit = getelementptr inbounds %class.btSliderConstraint, ptr %this1, i32 0, i32 6
  store float 1.000000e+00, ptr %m_lowerLinLimit, align 8
  %m_upperLinLimit = getelementptr inbounds %class.btSliderConstraint, ptr %this1, i32 0, i32 7
  store float -1.000000e+00, ptr %m_upperLinLimit, align 4
  %m_lowerAngLimit = getelementptr inbounds %class.btSliderConstraint, ptr %this1, i32 0, i32 8
  store float 0.000000e+00, ptr %m_lowerAngLimit, align 8
  %m_upperAngLimit = getelementptr inbounds %class.btSliderConstraint, ptr %this1, i32 0, i32 9
  store float 0.000000e+00, ptr %m_upperAngLimit, align 4
  %m_softnessDirLin = getelementptr inbounds %class.btSliderConstraint, ptr %this1, i32 0, i32 10
  store float 1.000000e+00, ptr %m_softnessDirLin, align 8
  %m_restitutionDirLin = getelementptr inbounds %class.btSliderConstraint, ptr %this1, i32 0, i32 11
  store float 0x3FE6666660000000, ptr %m_restitutionDirLin, align 4
  %m_dampingDirLin = getelementptr inbounds %class.btSliderConstraint, ptr %this1, i32 0, i32 12
  store float 0.000000e+00, ptr %m_dampingDirLin, align 8
  %m_cfmDirLin = getelementptr inbounds %class.btSliderConstraint, ptr %this1, i32 0, i32 13
  store float 0.000000e+00, ptr %m_cfmDirLin, align 4
  %m_softnessDirAng = getelementptr inbounds %class.btSliderConstraint, ptr %this1, i32 0, i32 14
  store float 1.000000e+00, ptr %m_softnessDirAng, align 8
  %m_restitutionDirAng = getelementptr inbounds %class.btSliderConstraint, ptr %this1, i32 0, i32 15
  store float 0x3FE6666660000000, ptr %m_restitutionDirAng, align 4
  %m_dampingDirAng = getelementptr inbounds %class.btSliderConstraint, ptr %this1, i32 0, i32 16
  store float 0.000000e+00, ptr %m_dampingDirAng, align 8
  %m_cfmDirAng = getelementptr inbounds %class.btSliderConstraint, ptr %this1, i32 0, i32 17
  store float 0.000000e+00, ptr %m_cfmDirAng, align 4
  %m_softnessOrthoLin = getelementptr inbounds %class.btSliderConstraint, ptr %this1, i32 0, i32 26
  store float 1.000000e+00, ptr %m_softnessOrthoLin, align 8
  %m_restitutionOrthoLin = getelementptr inbounds %class.btSliderConstraint, ptr %this1, i32 0, i32 27
  store float 0x3FE6666660000000, ptr %m_restitutionOrthoLin, align 4
  %m_dampingOrthoLin = getelementptr inbounds %class.btSliderConstraint, ptr %this1, i32 0, i32 28
  store float 1.000000e+00, ptr %m_dampingOrthoLin, align 8
  %m_cfmOrthoLin = getelementptr inbounds %class.btSliderConstraint, ptr %this1, i32 0, i32 29
  store float 0.000000e+00, ptr %m_cfmOrthoLin, align 4
  %m_softnessOrthoAng = getelementptr inbounds %class.btSliderConstraint, ptr %this1, i32 0, i32 30
  store float 1.000000e+00, ptr %m_softnessOrthoAng, align 8
  %m_restitutionOrthoAng = getelementptr inbounds %class.btSliderConstraint, ptr %this1, i32 0, i32 31
  store float 0x3FE6666660000000, ptr %m_restitutionOrthoAng, align 4
  %m_dampingOrthoAng = getelementptr inbounds %class.btSliderConstraint, ptr %this1, i32 0, i32 32
  store float 1.000000e+00, ptr %m_dampingOrthoAng, align 8
  %m_cfmOrthoAng = getelementptr inbounds %class.btSliderConstraint, ptr %this1, i32 0, i32 33
  store float 0.000000e+00, ptr %m_cfmOrthoAng, align 4
  %m_softnessLimLin = getelementptr inbounds %class.btSliderConstraint, ptr %this1, i32 0, i32 18
  store float 1.000000e+00, ptr %m_softnessLimLin, align 8
  %m_restitutionLimLin = getelementptr inbounds %class.btSliderConstraint, ptr %this1, i32 0, i32 19
  store float 0x3FE6666660000000, ptr %m_restitutionLimLin, align 4
  %m_dampingLimLin = getelementptr inbounds %class.btSliderConstraint, ptr %this1, i32 0, i32 20
  store float 1.000000e+00, ptr %m_dampingLimLin, align 8
  %m_cfmLimLin = getelementptr inbounds %class.btSliderConstraint, ptr %this1, i32 0, i32 21
  store float 0.000000e+00, ptr %m_cfmLimLin, align 4
  %m_softnessLimAng = getelementptr inbounds %class.btSliderConstraint, ptr %this1, i32 0, i32 22
  store float 1.000000e+00, ptr %m_softnessLimAng, align 8
  %m_restitutionLimAng = getelementptr inbounds %class.btSliderConstraint, ptr %this1, i32 0, i32 23
  store float 0x3FE6666660000000, ptr %m_restitutionLimAng, align 4
  %m_dampingLimAng = getelementptr inbounds %class.btSliderConstraint, ptr %this1, i32 0, i32 24
  store float 1.000000e+00, ptr %m_dampingLimAng, align 8
  %m_cfmLimAng = getelementptr inbounds %class.btSliderConstraint, ptr %this1, i32 0, i32 25
  store float 0.000000e+00, ptr %m_cfmLimAng, align 4
  %m_poweredLinMotor = getelementptr inbounds %class.btSliderConstraint, ptr %this1, i32 0, i32 55
  store i8 0, ptr %m_poweredLinMotor, align 8
  %m_targetLinMotorVelocity = getelementptr inbounds %class.btSliderConstraint, ptr %this1, i32 0, i32 56
  store float 0.000000e+00, ptr %m_targetLinMotorVelocity, align 4
  %m_maxLinMotorForce = getelementptr inbounds %class.btSliderConstraint, ptr %this1, i32 0, i32 57
  store float 0.000000e+00, ptr %m_maxLinMotorForce, align 8
  %m_accumulatedLinMotorImpulse = getelementptr inbounds %class.btSliderConstraint, ptr %this1, i32 0, i32 58
  store float 0.000000e+00, ptr %m_accumulatedLinMotorImpulse, align 4
  %m_poweredAngMotor = getelementptr inbounds %class.btSliderConstraint, ptr %this1, i32 0, i32 59
  store i8 0, ptr %m_poweredAngMotor, align 8
  %m_targetAngMotorVelocity = getelementptr inbounds %class.btSliderConstraint, ptr %this1, i32 0, i32 60
  store float 0.000000e+00, ptr %m_targetAngMotorVelocity, align 4
  %m_maxAngMotorForce = getelementptr inbounds %class.btSliderConstraint, ptr %this1, i32 0, i32 61
  store float 0.000000e+00, ptr %m_maxAngMotorForce, align 8
  %m_accumulatedAngMotorImpulse = getelementptr inbounds %class.btSliderConstraint, ptr %this1, i32 0, i32 62
  store float 0.000000e+00, ptr %m_accumulatedAngMotorImpulse, align 4
  %m_flags = getelementptr inbounds %class.btSliderConstraint, ptr %this1, i32 0, i32 36
  store i32 0, ptr %m_flags, align 4
  %m_flags2 = getelementptr inbounds %class.btSliderConstraint, ptr %this1, i32 0, i32 36
  store i32 0, ptr %m_flags2, align 4
  %m_useOffsetForConstraintFrame = getelementptr inbounds %class.btSliderConstraint, ptr %this1, i32 0, i32 2
  store i8 1, ptr %m_useOffsetForConstraintFrame, align 1
  %m_rbA = getelementptr inbounds %class.btTypedConstraint, ptr %this1, i32 0, i32 8
  %0 = load ptr, ptr %m_rbA, align 8
  %call = call noundef nonnull align 4 dereferenceable(64) ptr @_ZNK11btRigidBody24getCenterOfMassTransformEv(ptr noundef nonnull align 8 dereferenceable(744) %0)
  %m_rbB = getelementptr inbounds %class.btTypedConstraint, ptr %this1, i32 0, i32 9
  %1 = load ptr, ptr %m_rbB, align 8
  %call3 = call noundef nonnull align 4 dereferenceable(64) ptr @_ZNK11btRigidBody24getCenterOfMassTransformEv(ptr noundef nonnull align 8 dereferenceable(744) %1)
  call void @_ZN18btSliderConstraint19calculateTransformsERK11btTransformS2_(ptr noundef nonnull align 8 dereferenceable(1152) %this1, ptr noundef nonnull align 4 dereferenceable(64) %call, ptr noundef nonnull align 4 dereferenceable(64) %call3)
  ret void
}