; Function Attrs: mustprogress nofree norecurse nosync nounwind memory(readwrite, inaccessiblemem: none) uwtable
define dso_local void @_ZN18btSliderConstraint10initParamsEv(ptr noundef nonnull align 8 dereferenceable(1152) %this) local_unnamed_addr #1 align 2 {
entry:
  %m_lowerLinLimit = getelementptr inbounds i8, ptr %this, i64 208
  store <4 x float> <float 1.000000e+00, float -1.000000e+00, float 0.000000e+00, float 0.000000e+00>, ptr %m_lowerLinLimit, align 8
  %m_softnessDirLin = getelementptr inbounds i8, ptr %this, i64 224
  store <4 x float> <float 1.000000e+00, float 0x3FE6666660000000, float 0.000000e+00, float 0.000000e+00>, ptr %m_softnessDirLin, align 8
  %m_softnessDirAng = getelementptr inbounds i8, ptr %this, i64 240
  store <4 x float> <float 1.000000e+00, float 0x3FE6666660000000, float 0.000000e+00, float 0.000000e+00>, ptr %m_softnessDirAng, align 8
  %m_softnessOrthoLin = getelementptr inbounds i8, ptr %this, i64 288
  store <4 x float> <float 1.000000e+00, float 0x3FE6666660000000, float 1.000000e+00, float 0.000000e+00>, ptr %m_softnessOrthoLin, align 8
  %m_softnessOrthoAng = getelementptr inbounds i8, ptr %this, i64 304
  store <4 x float> <float 1.000000e+00, float 0x3FE6666660000000, float 1.000000e+00, float 0.000000e+00>, ptr %m_softnessOrthoAng, align 8
  %m_softnessLimLin = getelementptr inbounds i8, ptr %this, i64 256
  store <4 x float> <float 1.000000e+00, float 0x3FE6666660000000, float 1.000000e+00, float 0.000000e+00>, ptr %m_softnessLimLin, align 8
  %m_softnessLimAng = getelementptr inbounds i8, ptr %this, i64 272
  store <4 x float> <float 1.000000e+00, float 0x3FE6666660000000, float 1.000000e+00, float 0.000000e+00>, ptr %m_softnessLimAng, align 8
  %m_poweredLinMotor = getelementptr inbounds i8, ptr %this, i64 1120
  store i8 0, ptr %m_poweredLinMotor, align 8
  %m_targetLinMotorVelocity = getelementptr inbounds i8, ptr %this, i64 1124
  %m_targetAngMotorVelocity = getelementptr inbounds i8, ptr %this, i64 1140
  store <2 x float> zeroinitializer, ptr %m_targetAngMotorVelocity, align 4
  %m_accumulatedAngMotorImpulse = getelementptr inbounds i8, ptr %this, i64 1148
  store float 0.000000e+00, ptr %m_accumulatedAngMotorImpulse, align 4
  %m_flags = getelementptr inbounds i8, ptr %this, i64 324
  store i32 0, ptr %m_flags, align 4
  %m_useOffsetForConstraintFrame = getelementptr inbounds i8, ptr %this, i64 73
  tail call void @llvm.memset.p0.i64(ptr noundef nonnull align 4 dereferenceable(13) %m_targetLinMotorVelocity, i8 0, i64 13, i1 false)
  store i8 1, ptr %m_useOffsetForConstraintFrame, align 1
  %m_rbA = getelementptr inbounds i8, ptr %this, i64 40
  %0 = load ptr, ptr %m_rbA, align 8
  %m_worldTransform.i = getelementptr inbounds i8, ptr %0, i64 8
  %m_rbB = getelementptr inbounds i8, ptr %this, i64 48
  %1 = load ptr, ptr %m_rbB, align 8
  %m_worldTransform.i1 = getelementptr inbounds i8, ptr %1, i64 8
  tail call void @_ZN18btSliderConstraint19calculateTransformsERK11btTransformS2_(ptr noundef nonnull align 8 dereferenceable(1152) %this, ptr noundef nonnull align 4 dereferenceable(64) %m_worldTransform.i, ptr noundef nonnull align 4 dereferenceable(64) %m_worldTransform.i1)
  ret void
}